; Function Attrs: mustprogress uwtable
define hidden noundef ptr @_ZN7datalog11udoc_plugin22mk_filter_identical_fnERKNS_13relation_baseEjPKj(ptr noundef nonnull readnone align 8 captures(address) dereferenceable(129) %0, ptr noundef nonnull align 8 dereferenceable(28) %1, i32 noundef %2, ptr noundef %3) unnamed_addr #3 align 2 {
  %5 = getelementptr inbounds nuw i8, ptr %1, i64 8
  %6 = load ptr, ptr %5, align 8, !tbaa !167
  %7 = icmp eq ptr %6, %0
  br i1 %7, label %8, label %10

8:                                                ; preds = %4
  %9 = tail call noalias noundef ptr @_ZN6memory8allocateEm(i64 noundef 152)
  tail call void @_ZN7datalog11udoc_plugin19filter_identical_fnC2ERKNS_13relation_baseEjPKj(ptr noundef nonnull align 8 dereferenceable(152) %9, ptr noundef nonnull align 8 dereferenceable(28) %1, i32 noundef %2, ptr noundef %3)
  br label %10

10:                                               ; preds = %4, %8
  %11 = phi ptr [ %9, %8 ], [ null, %4 ]
  ret ptr %11
}